(lp0
(dp1
S'pose_orientation_w'
p2
F1.0
sS'pose_position_y'
p3
F3.7073235035519816
sS'namespace'
p4
S'my_namespace'
p5
sS'pose_orientation_z'
p6
F0.0
sS'header_header_stamp'
p7
ccopy_reg
_reconstructor
p8
(cgenpy.rostime
Time
p9
c__builtin__
object
p10
Ntp11
Rp12
(lp13
I1524643828
aI553033113
absS'pose_position_x'
p14
F3.6255964454770826
sS'header_frame_id'
p15
S'map'
p16
sS'pose_orientation_y'
p17
F0.0
sS'action'
p18
I0
sS'pose_orientation_x'
p19
F0.0
sS'type'
p20
I2
sS'id'
p21
I0
sS'pose_position_z'
p22
F-0.0769138599778746
sa(dp23
g2
F1.0
sg3
F5.662190720029132
sg4
S'my_namespace'
p24
sg6
F0.0
sg7
g8
(g9
g10
Ntp25
Rp26
(lp27
I1524643834
aI647737979
absg14
F3.9028341204378334
sg15
S'map'
p28
sg17
F0.0
sg18
I0
sg19
F0.0
sg20
I2
sg21
I1
sg22
F-0.6281376398076446
sa(dp29
g2
F1.0
sg3
F2.367483535519687
sg4
S'my_namespace'
p30
sg6
F0.0
sg7
g8
(g9
g10
Ntp31
Rp32
(lp33
I1524643890
aI992443084
absg14
F3.791846131006714
sg15
S'map'
p34
sg17
F0.0
sg18
I0
sg19
F0.0
sg20
I2
sg21
I2
sg22
F-0.08061009008195426
sa(dp35
g2
F1.0
sg3
F3.6862889576814784
sg4
S'my_namespace'
p36
sg6
F0.0
sg7
g8
(g9
g10
Ntp37
Rp38
(lp39
I1524643890
aI992557048
absg14
F5.215256415270418
sg15
S'map'
p40
sg17
F0.0
sg18
I0
sg19
F0.0
sg20
I2
sg21
I3
sg22
F-0.6278981292755063
sa(dp41
g2
F1.0
sg3
F1.965239241093804
sg4
S'my_namespace'
p42
sg6
F0.0
sg7
g8
(g9
g10
Ntp43
Rp44
(lp45
I1524643902
aI247503995
absg14
F9.668819015002017
sg15
S'map'
p46
sg17
F0.0
sg18
I0
sg19
F0.0
sg20
I2
sg21
I4
sg22
F-1.0530579911046891
sa(dp47
g2
F1.0
sg3
F2.320473907401122
sg4
S'my_namespace'
p48
sg6
F0.0
sg7
g8
(g9
g10
Ntp49
Rp50
(lp51
I1524643905
aI38527011
absg14
F6.171640490587701
sg15
S'map'
p52
sg17
F0.0
sg18
I0
sg19
F0.0
sg20
I2
sg21
I5
sg22
F-0.3757379269862055
sa.